target datalayout = "e-m:e-p270:32:32-p271:32:32-p272:64:64-i64:64-i128:128-f80:128-n8:16:32:64-S128"
target triple = "x86_64-pc-linux-gnu"

; Function Attrs: nounwind uwtable
define internal i32 @unicode_decomp_char(ptr noundef %0, i32 noundef %1, i32 noundef %2) #0 {
  %4 = alloca i32, align 4
  %5 = alloca ptr, align 8
  %6 = alloca i32, align 4
  %7 = alloca i32, align 4
  %8 = alloca i32, align 4
  %9 = alloca i32, align 4
  %10 = alloca i32, align 4
  %11 = alloca i32, align 4
  %12 = alloca i32, align 4
  %13 = alloca i32, align 4
  %14 = alloca i32, align 4
  %15 = alloca i32, align 4
  store ptr %0, ptr %5, align 8
  store i32 %1, ptr %6, align 4
  store i32 %2, ptr %7, align 4
  store i32 0, ptr %13, align 4
  store i32 698, ptr %14, align 4
  br label %16

16:                                               ; preds = %68, %3
  %17 = load i32, ptr %13, align 4
  %18 = load i32, ptr %14, align 4
  %19 = icmp sle i32 %17, %18
  br i1 %19, label %20, label %69

20:                                               ; preds = %16
  %21 = load i32, ptr %14, align 4
  %22 = load i32, ptr %13, align 4
  %23 = add i32 %21, %22
  %24 = sdiv i32 %23, 2
  store i32 %24, ptr %15, align 4
  %25 = load i32, ptr %15, align 4
  %26 = sext i32 %25 to i64
  %27 = getelementptr [699 x i32], ptr @unicode_decomp_table1, i64 0, i64 %26
  %28 = load i32, ptr %27, align 4
  store i32 %28, ptr %8, align 4
  %29 = load i32, ptr %8, align 4
  %30 = lshr i32 %29, 14
  store i32 %30, ptr %11, align 4
  %31 = load i32, ptr %8, align 4
  %32 = lshr i32 %31, 7
  %33 = and i32 %32, 127
  store i32 %33, ptr %12, align 4
  %34 = load i32, ptr %6, align 4
  %35 = load i32, ptr %11, align 4
  %36 = icmp ult i32 %34, %35
  br i1 %36, label %37, label %40

37:                                               ; preds = %20
  %38 = load i32, ptr %15, align 4
  %39 = sub i32 %38, 1
  store i32 %39, ptr %14, align 4
  br label %68

40:                                               ; preds = %20
  %41 = load i32, ptr %6, align 4
  %42 = load i32, ptr %11, align 4
  %43 = load i32, ptr %12, align 4
  %44 = add i32 %42, %43
  %45 = icmp uge i32 %41, %44
  br i1 %45, label %46, label %49

46:                                               ; preds = %40
  %47 = load i32, ptr %15, align 4
  %48 = add i32 %47, 1
  store i32 %48, ptr %13, align 4
  br label %67

49:                                               ; preds = %40
  %50 = load i32, ptr %8, align 4
  %51 = and i32 %50, 1
  store i32 %51, ptr %10, align 4
  %52 = load i32, ptr %7, align 4
  %53 = load i32, ptr %10, align 4
  %54 = icmp ult i32 %52, %53
  br i1 %54, label %55, label %56

55:                                               ; preds = %49
  br label %69

56:                                               ; preds = %49
  %57 = load i32, ptr %8, align 4
  %58 = lshr i32 %57, 1
  %59 = and i32 %58, 63
  store i32 %59, ptr %9, align 4
  %60 = load ptr, ptr %5, align 8
  %61 = load i32, ptr %6, align 4
  %62 = load i32, ptr %15, align 4
  %63 = load i32, ptr %11, align 4
  %64 = load i32, ptr %12, align 4
  %65 = load i32, ptr %9, align 4
  %66 = call i32 @unicode_decomp_entry(ptr noundef %60, i32 noundef %61, i32 noundef %62, i32 noundef %63, i32 noundef %64, i32 noundef %65)
  store i32 %66, ptr %4, align 4
  br label %70

67:                                               ; preds = %46
  br label %68

68:                                               ; preds = %67, %37
  br label %16, !llvm.loop !36

69:                                               ; preds = %55, %16
  store i32 0, ptr %4, align 4
  br label %70

70:                                               ; preds = %69, %56
  %71 = load i32, ptr %4, align 4
  ret i32 %71
}

; Function Attrs: nounwind uwtable
define internal i32 @dbuf_put_u32(ptr noundef %0, i32 noundef %1) #0 {
  %3 = alloca ptr, align 8
  %4 = alloca i32, align 4
  store ptr %0, ptr %3, align 8
  store i32 %1, ptr %4, align 4
  %5 = load ptr, ptr %3, align 8
  %6 = call i32 @dbuf_put(ptr noundef %5, ptr noundef %4, i64 noundef 4)
  ret i32 %6
}

; Function Attrs: nounwind uwtable
define internal void @to_nfd_rec(ptr noundef %0, ptr noundef %1, i32 noundef %2, i32 noundef %3) #0 {
  %5 = alloca ptr, align 8
  %6 = alloca ptr, align 8
  %7 = alloca i32, align 4
  %8 = alloca i32, align 4
  %9 = alloca i32, align 4
  %10 = alloca i32, align 4
  %11 = alloca i32, align 4
  %12 = alloca i32, align 4
  %13 = alloca [18 x i32], align 16
  store ptr %0, ptr %5, align 8
  store ptr %1, ptr %6, align 8
  store i32 %2, ptr %7, align 4
  store i32 %3, ptr %8, align 4
  store i32 0, ptr %11, align 4
  br label %14

14:                                               ; preds = %71, %4
  %15 = load i32, ptr %11, align 4
  %16 = load i32, ptr %7, align 4
  %17 = icmp slt i32 %15, %16
  br i1 %17, label %18, label %74

18:                                               ; preds = %14
  %19 = load ptr, ptr %6, align 8
  %20 = load i32, ptr %11, align 4
  %21 = sext i32 %20 to i64
  %22 = getelementptr i32, ptr %19, i64 %21
  %23 = load i32, ptr %22, align 4
  store i32 %23, ptr %9, align 4
  %24 = load i32, ptr %9, align 4
  %25 = icmp uge i32 %24, 44032
  br i1 %25, label %26, label %53

26:                                               ; preds = %18
  %27 = load i32, ptr %9, align 4
  %28 = icmp ult i32 %27, 55204
  br i1 %28, label %29, label %53

29:                                               ; preds = %26
  %30 = load i32, ptr %9, align 4
  %31 = sub i32 %30, 44032
  store i32 %31, ptr %9, align 4
  %32 = load ptr, ptr %5, align 8
  %33 = load i32, ptr %9, align 4
  %34 = udiv i32 %33, 588
  %35 = add i32 4352, %34
  %36 = call i32 @dbuf_put_u32(ptr noundef %32, i32 noundef %35)
  %37 = load ptr, ptr %5, align 8
  %38 = load i32, ptr %9, align 4
  %39 = urem i32 %38, 588
  %40 = udiv i32 %39, 28
  %41 = add i32 4449, %40
  %42 = call i32 @dbuf_put_u32(ptr noundef %37, i32 noundef %41)
  %43 = load i32, ptr %9, align 4
  %44 = urem i32 %43, 28
  store i32 %44, ptr %10, align 4
  %45 = load i32, ptr %10, align 4
  %46 = icmp ne i32 %45, 0
  br i1 %46, label %47, label %52

47:                                               ; preds = %29
  %48 = load ptr, ptr %5, align 8
  %49 = load i32, ptr %10, align 4
  %50 = add i32 4519, %49
  %51 = call i32 @dbuf_put_u32(ptr noundef %48, i32 noundef %50)
  br label %52

52:                                               ; preds = %47, %29
  br label %70

53:                                               ; preds = %26, %18
  %54 = getelementptr inbounds [18 x i32], ptr %13, i64 0, i64 0
  %55 = load i32, ptr %9, align 4
  %56 = load i32, ptr %8, align 4
  %57 = call i32 @unicode_decomp_char(ptr noundef %54, i32 noundef %55, i32 noundef %56)
  store i32 %57, ptr %12, align 4
  %58 = load i32, ptr %12, align 4
  %59 = icmp ne i32 %58, 0
  br i1 %59, label %60, label %65

60:                                               ; preds = %53
  %61 = load ptr, ptr %5, align 8
  %62 = getelementptr inbounds [18 x i32], ptr %13, i64 0, i64 0
  %63 = load i32, ptr %12, align 4
  %64 = load i32, ptr %8, align 4
  call void @to_nfd_rec(ptr noundef %61, ptr noundef %62, i32 noundef %63, i32 noundef %64)
  br label %69

65:                                               ; preds = %53
  %66 = load ptr, ptr %5, align 8
  %67 = load i32, ptr %9, align 4
  %68 = call i32 @dbuf_put_u32(ptr noundef %66, i32 noundef %67)
  br label %69

69:                                               ; preds = %65, %60
  br label %70

70:                                               ; preds = %69, %52
  br label %71

71:                                               ; preds = %70
  %72 = load i32, ptr %11, align 4
  %73 = add i32 %72, 1
  store i32 %73, ptr %11, align 4
  br label %14, !llvm.loop !16

74:                                               ; preds = %14
  ret void
}