; Function Attrs: nounwind uwtable
define internal fastcc void @to_nfd_rec(ptr noundef %0, ptr nocapture noundef readonly %1, i32 noundef %2, i32 noundef %3) unnamed_addr #5 {
  %5 = alloca i32, align 4
  %6 = alloca i32, align 4
  %7 = alloca i32, align 4
  %8 = alloca i32, align 4
  %9 = alloca [18 x i32], align 16
  %10 = icmp sgt i32 %2, 0
  br i1 %10, label %.lr.ph.preheader, label %._crit_edge

.lr.ph.preheader:                                 ; preds = %4
  %wide.trip.count = zext nneg i32 %2 to i64
  br label %.lr.ph

.lr.ph:                                           ; preds = %.lr.ph.preheader, %51
  %indvars.iv = phi i64 [ 0, %.lr.ph.preheader ], [ %indvars.iv.next, %51 ]
  %11 = getelementptr i32, ptr %1, i64 %indvars.iv
  %12 = load i32, ptr %11, align 4
  %13 = add i32 %12, -44032
  %or.cond = icmp ult i32 %13, 11172
  br i1 %or.cond, label %14, label %.preheader

14:                                               ; preds = %.lr.ph
  %.lhs.trunc = trunc i32 %13 to i16
  %15 = udiv i16 %.lhs.trunc, 588
  %16 = or disjoint i16 %15, 4352
  %17 = zext nneg i16 %16 to i32
  call void @llvm.lifetime.start.p0(i64 4, ptr nonnull %8)
  store i32 %17, ptr %8, align 4
  %18 = call i32 @dbuf_put(ptr noundef %0, ptr noundef nonnull %8, i64 noundef 4) #20
  call void @llvm.lifetime.end.p0(i64 4, ptr nonnull %8)
  %19 = urem i16 %.lhs.trunc, 588
  %20 = udiv i16 %19, 28
  %narrow = add nuw nsw i16 %20, 4449
  %21 = zext nneg i16 %narrow to i32
  call void @llvm.lifetime.start.p0(i64 4, ptr nonnull %7)
  store i32 %21, ptr %7, align 4
  %22 = call i32 @dbuf_put(ptr noundef %0, ptr noundef nonnull %7, i64 noundef 4) #20
  call void @llvm.lifetime.end.p0(i64 4, ptr nonnull %7)
  %23 = urem i16 %.lhs.trunc, 28
  %.not27 = icmp eq i16 %23, 0
  br i1 %.not27, label %51, label %24

24:                                               ; preds = %14
  %narrow36 = add nuw nsw i16 %23, 4519
  %25 = zext nneg i16 %narrow36 to i32
  call void @llvm.lifetime.start.p0(i64 4, ptr nonnull %6)
  store i32 %25, ptr %6, align 4
  %26 = call i32 @dbuf_put(ptr noundef %0, ptr noundef nonnull %6, i64 noundef 4) #20
  call void @llvm.lifetime.end.p0(i64 4, ptr nonnull %6)
  br label %51

.preheader:                                       ; preds = %.lr.ph, %45
  %.02434.i = phi i32 [ %.1.i, %45 ], [ 698, %.lr.ph ]
  %.02533.i = phi i32 [ %.126.i, %45 ], [ 0, %.lr.ph ]
  %27 = add i32 %.02533.i, %.02434.i
  %28 = sdiv i32 %27, 2
  %29 = sext i32 %28 to i64
  %30 = getelementptr [699 x i32], ptr @unicode_decomp_table1, i64 0, i64 %29
  %31 = load i32, ptr %30, align 4
  %32 = lshr i32 %31, 14
  %33 = icmp ugt i32 %32, %12
  br i1 %33, label %34, label %36

34:                                               ; preds = %.preheader
  %35 = add nsw i32 %28, -1
  br label %45

36:                                               ; preds = %.preheader
  %37 = lshr i32 %31, 7
  %38 = and i32 %37, 127
  %39 = add nuw nsw i32 %38, %32
  %.not29.i = icmp ugt i32 %39, %12
  br i1 %.not29.i, label %42, label %40

40:                                               ; preds = %36
  %41 = add nsw i32 %28, 1
  br label %45

42:                                               ; preds = %36
  %43 = and i32 %31, 1
  %44 = icmp ugt i32 %43, %3
  br i1 %44, label %unicode_decomp_char.exit.thread, label %unicode_decomp_char.exit

45:                                               ; preds = %40, %34
  %.126.i = phi i32 [ %.02533.i, %34 ], [ %41, %40 ]
  %.1.i = phi i32 [ %35, %34 ], [ %.02434.i, %40 ]
  %.not.i = icmp sgt i32 %.126.i, %.1.i
  br i1 %.not.i, label %unicode_decomp_char.exit.thread, label %.preheader, !llvm.loop !24

unicode_decomp_char.exit:                         ; preds = %42
  %46 = lshr i32 %31, 1
  %47 = and i32 %46, 63
  %48 = call fastcc i32 @unicode_decomp_entry(ptr noundef nonnull %9, i32 noundef %12, i32 noundef %28, i32 noundef %32, i32 noundef %38, i32 noundef %47)
  %.not = icmp eq i32 %48, 0
  br i1 %.not, label %unicode_decomp_char.exit.thread, label %49

49:                                               ; preds = %unicode_decomp_char.exit
  call fastcc void @to_nfd_rec(ptr noundef %0, ptr noundef nonnull %9, i32 noundef %48, i32 noundef %3)
  br label %51

unicode_decomp_char.exit.thread:                  ; preds = %45, %42, %unicode_decomp_char.exit
  call void @llvm.lifetime.start.p0(i64 4, ptr nonnull %5)
  store i32 %12, ptr %5, align 4
  %50 = call i32 @dbuf_put(ptr noundef %0, ptr noundef nonnull %5, i64 noundef 4) #20
  call void @llvm.lifetime.end.p0(i64 4, ptr nonnull %5)
  br label %51

51:                                               ; preds = %24, %14, %unicode_decomp_char.exit.thread, %49
  %indvars.iv.next = add nuw nsw i64 %indvars.iv, 1
  %exitcond.not = icmp eq i64 %indvars.iv.next, %wide.trip.count
  br i1 %exitcond.not, label %._crit_edge, label %.lr.ph, !llvm.loop !25

._crit_edge:                                      ; preds = %51, %4
  ret void
}